; Function Attrs: mustprogress uwtable
define hidden void @_ZN11upolynomial7manager13compose_p_b_xEjP3mpzRKS1_(ptr noundef nonnull align 8 dereferenceable(312) %0, i32 noundef %1, ptr noundef %2, ptr noundef nonnull align 8 dereferenceable(16) %3) local_unnamed_addr #3 align 2 personality ptr @__gxx_personality_v0 {
  %5 = alloca %class._scoped_numeral, align 8
  %6 = icmp ult i32 %1, 2
  br i1 %6, label %45, label %7

7:                                                ; preds = %4
  call void @llvm.lifetime.start.p0(i64 24, ptr nonnull %5) #25
  %8 = getelementptr inbounds nuw i8, ptr %0, i64 8
  store ptr %8, ptr %5, align 8, !tbaa !86
  %9 = getelementptr inbounds nuw i8, ptr %5, i64 8
  store i32 0, ptr %9, align 8, !tbaa !8
  %10 = getelementptr inbounds nuw i8, ptr %5, i64 12
  store i8 0, ptr %10, align 4
  %11 = getelementptr inbounds nuw i8, ptr %5, i64 16
  store ptr null, ptr %11, align 8, !tbaa !40
  %12 = getelementptr inbounds nuw i8, ptr %3, i64 4
  %13 = load i8, ptr %12, align 4
  %14 = and i8 %13, 1
  %15 = icmp eq i8 %14, 0
  br i1 %15, label %16, label %18

16:                                               ; preds = %7
  %17 = load i32, ptr %3, align 8, !tbaa !8
  store i32 %17, ptr %9, align 8, !tbaa !8
  store i8 0, ptr %10, align 4
  br label %_ZN11mpz_managerILb0EE3setER3mpzRKS1_.exit.i

18:                                               ; preds = %7
  %19 = load ptr, ptr %8, align 8, !tbaa !33
  invoke void @_ZN11mpz_managerILb0EE7big_setER3mpzRKS1_(ptr noundef nonnull align 8 dereferenceable(600) %19, ptr noundef nonnull align 8 dereferenceable(16) %9, ptr noundef nonnull align 8 dereferenceable(16) %3)
          to label %_ZN11mpz_managerILb0EE3setER3mpzRKS1_.exit.i unwind label %29

_ZN11mpz_managerILb0EE3setER3mpzRKS1_.exit.i:     ; preds = %18, %16
  %20 = getelementptr inbounds nuw i8, ptr %0, i64 16
  %21 = load i8, ptr %20, align 8, !tbaa !12, !range !16, !noundef !17
  %22 = trunc nuw i8 %21 to i1
  br i1 %22, label %.lr.ph.preheader, label %23

23:                                               ; preds = %_ZN11mpz_managerILb0EE3setER3mpzRKS1_.exit.i
  invoke void @_ZN13mpzzp_manager16p_normalize_coreER3mpz(ptr noundef nonnull align 8 dereferenceable(136) %8, ptr noundef nonnull align 8 dereferenceable(16) %9)
          to label %.lr.ph.preheader unwind label %29

.lr.ph.preheader:                                 ; preds = %_ZN11mpz_managerILb0EE3setER3mpzRKS1_.exit.i, %23
  %wide.trip.count = zext i32 %1 to i64
  br label %.lr.ph

._crit_edge:                                      ; preds = %_ZN13mpzzp_manager3mulERK3mpzS2_RS0_.exit23
  %24 = load ptr, ptr %5, align 8, !tbaa !89
  %25 = load ptr, ptr %24, align 8, !tbaa !33
  invoke void @_ZN11mpz_managerILb0EE3delEPS0_R3mpz(ptr noundef nonnull align 8 dereferenceable(600) %25, ptr noundef nonnull align 8 dereferenceable(16) %9)
          to label %_ZN15_scoped_numeralI13mpzzp_managerED2Ev.exit unwind label %26

26:                                               ; preds = %._crit_edge
  %27 = landingpad { ptr, i32 }
          catch ptr null
  %28 = extractvalue { ptr, i32 } %27, 0
  call void @__clang_call_terminate(ptr %28) #26
  unreachable

_ZN15_scoped_numeralI13mpzzp_managerED2Ev.exit:   ; preds = %._crit_edge
  call void @llvm.lifetime.end.p0(i64 24, ptr nonnull %5) #25
  br label %45

29:                                               ; preds = %23, %18
  %30 = landingpad { ptr, i32 }
          cleanup
  br label %46

.lr.ph:                                           ; preds = %.lr.ph.preheader, %_ZN13mpzzp_manager3mulERK3mpzS2_RS0_.exit23
  %indvars.iv = phi i64 [ 1, %.lr.ph.preheader ], [ %indvars.iv.next, %_ZN13mpzzp_manager3mulERK3mpzS2_RS0_.exit23 ]
  %31 = getelementptr inbounds nuw %class.mpz, ptr %2, i64 %indvars.iv
  %32 = load i32, ptr %31, align 8, !tbaa !8
  %33 = icmp eq i32 %32, 0
  br i1 %33, label %_ZN13mpzzp_manager3mulERK3mpzS2_RS0_.exit, label %34

34:                                               ; preds = %.lr.ph
  %35 = load ptr, ptr %8, align 8, !tbaa !33
  invoke void @_ZN11mpz_managerILb0EE3mulERK3mpzS3_RS1_(ptr noundef nonnull align 8 dereferenceable(600) %35, ptr noundef nonnull align 8 dereferenceable(16) %31, ptr noundef nonnull align 8 dereferenceable(16) %9, ptr noundef nonnull align 8 dereferenceable(16) %31)
          to label %.noexc19 unwind label %39

.noexc19:                                         ; preds = %34
  %36 = load i8, ptr %20, align 8, !tbaa !12, !range !16, !noundef !17
  %37 = trunc nuw i8 %36 to i1
  br i1 %37, label %_ZN13mpzzp_manager3mulERK3mpzS2_RS0_.exit, label %38

38:                                               ; preds = %.noexc19
  invoke void @_ZN13mpzzp_manager16p_normalize_coreER3mpz(ptr noundef nonnull align 8 dereferenceable(136) %8, ptr noundef nonnull align 8 dereferenceable(16) %31)
          to label %_ZN13mpzzp_manager3mulERK3mpzS2_RS0_.exit unwind label %39

39:                                               ; preds = %44, %_ZN13mpzzp_manager3mulERK3mpzS2_RS0_.exit, %38, %34
  %40 = landingpad { ptr, i32 }
          cleanup
  br label %46

_ZN13mpzzp_manager3mulERK3mpzS2_RS0_.exit:        ; preds = %.noexc19, %38, %.lr.ph
  %41 = load ptr, ptr %8, align 8, !tbaa !33
  invoke void @_ZN11mpz_managerILb0EE3mulERK3mpzS3_RS1_(ptr noundef nonnull align 8 dereferenceable(600) %41, ptr noundef nonnull align 8 dereferenceable(16) %9, ptr noundef nonnull align 8 dereferenceable(16) %3, ptr noundef nonnull align 8 dereferenceable(16) %9)
          to label %.noexc21 unwind label %39

.noexc21:                                         ; preds = %_ZN13mpzzp_manager3mulERK3mpzS2_RS0_.exit
  %42 = load i8, ptr %20, align 8, !tbaa !12, !range !16, !noundef !17
  %43 = trunc nuw i8 %42 to i1
  br i1 %43, label %_ZN13mpzzp_manager3mulERK3mpzS2_RS0_.exit23, label %44

44:                                               ; preds = %.noexc21
  invoke void @_ZN13mpzzp_manager16p_normalize_coreER3mpz(ptr noundef nonnull align 8 dereferenceable(136) %8, ptr noundef nonnull align 8 dereferenceable(16) %9)
          to label %_ZN13mpzzp_manager3mulERK3mpzS2_RS0_.exit23 unwind label %39

_ZN13mpzzp_manager3mulERK3mpzS2_RS0_.exit23:      ; preds = %.noexc21, %44
  %indvars.iv.next = add nuw nsw i64 %indvars.iv, 1
  %exitcond.not = icmp eq i64 %indvars.iv.next, %wide.trip.count
  br i1 %exitcond.not, label %._crit_edge, label %.lr.ph, !llvm.loop !175

45:                                               ; preds = %4, %_ZN15_scoped_numeralI13mpzzp_managerED2Ev.exit
  ret void

46:                                               ; preds = %39, %29
  %.pn = phi { ptr, i32 } [ %40, %39 ], [ %30, %29 ]
  call void @_ZN15_scoped_numeralI13mpzzp_managerED2Ev(ptr noundef nonnull align 8 dereferenceable(24) %5) #25
  call void @llvm.lifetime.end.p0(i64 24, ptr nonnull %5) #25
  resume { ptr, i32 } %.pn
}